target datalayout = "e-m:e-p270:32:32-p271:32:32-p272:64:64-i64:64-i128:128-f80:128-n8:16:32:64-S128"
target triple = "x86_64-unknown-linux-gnu"

%struct.ErrorPropagator = type { ptr, ptr }

@error_fatal = external global ptr, align 8
@.str.57 = private unnamed_addr constant [20 x i8] c"Failed to read %s: \00", align 1

; Function Attrs: nounwind sspstrong uwtable
define internal void @error_propagator_cleanup(ptr noundef %prop) #0 {
entry:
  %prop.addr = alloca ptr, align 8
  store ptr %prop, ptr %prop.addr, align 8
  %0 = load ptr, ptr %prop.addr, align 8
  %errp = getelementptr inbounds %struct.ErrorPropagator, ptr %0, i32 0, i32 1
  %1 = load ptr, ptr %errp, align 8
  %2 = load ptr, ptr %prop.addr, align 8
  %local_err = getelementptr inbounds %struct.ErrorPropagator, ptr %2, i32 0, i32 0
  %3 = load ptr, ptr %local_err, align 8
  call void @error_propagate(ptr noundef %1, ptr noundef %3)
  ret void
}

; Function Attrs: nounwind sspstrong uwtable
define internal void @glib_auto_cleanup_ErrorPropagator(ptr noundef %_ptr) #0 {
entry:
  %_ptr.addr = alloca ptr, align 8
  store ptr %_ptr, ptr %_ptr.addr, align 8
  %0 = load ptr, ptr %_ptr.addr, align 8
  call void @error_propagator_cleanup(ptr noundef %0)
  ret void
}

; Function Attrs: nounwind sspstrong uwtable
define internal i32 @nbd_read(ptr noundef %ioc, ptr noundef %buffer, i64 noundef %size, ptr noundef %desc, ptr noundef %errp) #0 {
entry:
  %retval = alloca i32, align 4
  %ioc.addr = alloca ptr, align 8
  %buffer.addr = alloca ptr, align 8
  %size.addr = alloca i64, align 8
  %desc.addr = alloca ptr, align 8
  %errp.addr = alloca ptr, align 8
  %_auto_errp_prop = alloca %struct.ErrorPropagator, align 8
  %ret = alloca i32, align 4
  %cleanup.dest.slot = alloca i32, align 4
  store ptr %ioc, ptr %ioc.addr, align 8
  store ptr %buffer, ptr %buffer.addr, align 8
  store i64 %size, ptr %size.addr, align 8
  store ptr %desc, ptr %desc.addr, align 8
  store ptr %errp, ptr %errp.addr, align 8
  %local_err = getelementptr inbounds %struct.ErrorPropagator, ptr %_auto_errp_prop, i32 0, i32 0
  store ptr null, ptr %local_err, align 8
  %errp1 = getelementptr inbounds %struct.ErrorPropagator, ptr %_auto_errp_prop, i32 0, i32 1
  %0 = load ptr, ptr %errp.addr, align 8
  store ptr %0, ptr %errp1, align 8
  br label %do.body

do.body:                                          ; preds = %entry
  %1 = load ptr, ptr %errp.addr, align 8
  %tobool = icmp ne ptr %1, null
  br i1 %tobool, label %lor.lhs.false, label %if.then

lor.lhs.false:                                    ; preds = %do.body
  %2 = load ptr, ptr %errp.addr, align 8
  %cmp = icmp eq ptr %2, @error_fatal
  br i1 %cmp, label %if.then, label %if.end

if.then:                                          ; preds = %lor.lhs.false, %do.body
  %local_err2 = getelementptr inbounds %struct.ErrorPropagator, ptr %_auto_errp_prop, i32 0, i32 0
  store ptr %local_err2, ptr %errp.addr, align 8
  br label %if.end

if.end:                                           ; preds = %if.then, %lor.lhs.false
  br label %do.cond

do.cond:                                          ; preds = %if.end
  br label %do.end

do.end:                                           ; preds = %do.cond
  %3 = load ptr, ptr %ioc.addr, align 8
  %4 = load ptr, ptr %buffer.addr, align 8
  %5 = load i64, ptr %size.addr, align 8
  %6 = load ptr, ptr %errp.addr, align 8
  %call = call i32 @qio_channel_read_all(ptr noundef %3, ptr noundef %4, i64 noundef %5, ptr noundef %6)
  %cmp3 = icmp slt i32 %call, 0
  %cond = select i1 %cmp3, i32 -5, i32 0
  store i32 %cond, ptr %ret, align 4
  %7 = load i32, ptr %ret, align 4
  %cmp4 = icmp slt i32 %7, 0
  br i1 %cmp4, label %if.then5, label %if.end9

if.then5:                                         ; preds = %do.end
  %8 = load ptr, ptr %desc.addr, align 8
  %tobool6 = icmp ne ptr %8, null
  br i1 %tobool6, label %if.then7, label %if.end8

if.then7:                                         ; preds = %if.then5
  %9 = load ptr, ptr %errp.addr, align 8
  %10 = load ptr, ptr %desc.addr, align 8
  call void (ptr, ptr, ...) @error_prepend(ptr noundef %9, ptr noundef @.str.57, ptr noundef %10)
  br label %if.end8

if.end8:                                          ; preds = %if.then7, %if.then5
  %11 = load i32, ptr %ret, align 4
  store i32 %11, ptr %retval, align 4
  store i32 1, ptr %cleanup.dest.slot, align 4
  br label %cleanup

if.end9:                                          ; preds = %do.end
  store i32 0, ptr %retval, align 4
  store i32 1, ptr %cleanup.dest.slot, align 4
  br label %cleanup

cleanup:                                          ; preds = %if.end9, %if.end8
  call void @glib_auto_cleanup_ErrorPropagator(ptr noundef %_auto_errp_prop)
  %12 = load i32, ptr %retval, align 4
  ret i32 %12
}

; Function Attrs: nounwind sspstrong uwtable
define dso_local i32 @nbd_drop(ptr noundef %ioc, i64 noundef %size, ptr noundef %errp) #0 {
entry:
  %ioc.addr = alloca ptr, align 8
  %size.addr = alloca i64, align 8
  %errp.addr = alloca ptr, align 8
  %ret = alloca i64, align 8
  %small = alloca [1024 x i8], align 16
  %buffer = alloca ptr, align 8
  %_a4 = alloca i64, align 8
  %_b5 = alloca i64, align 8
  %tmp = alloca i64, align 8
  %count = alloca i64, align 8
  %_a6 = alloca i64, align 8
  %_b7 = alloca i64, align 8
  %tmp7 = alloca i64, align 8
  %_a8 = alloca i64, align 8
  %_b9 = alloca i64, align 8
  %tmp13 = alloca i64, align 8
  store ptr %ioc, ptr %ioc.addr, align 8
  store i64 %size, ptr %size.addr, align 8
  store ptr %errp, ptr %errp.addr, align 8
  store i64 0, ptr %ret, align 8
  %0 = load i64, ptr %size.addr, align 8
  %cmp = icmp uge i64 1024, %0
  br i1 %cmp, label %cond.true, label %cond.false

cond.true:                                        ; preds = %entry
  %arraydecay = getelementptr inbounds [1024 x i8], ptr %small, i64 0, i64 0
  br label %cond.end4

cond.false:                                       ; preds = %entry
  store i64 65536, ptr %_a4, align 8
  %1 = load i64, ptr %size.addr, align 8
  store i64 %1, ptr %_b5, align 8
  %2 = load i64, ptr %_a4, align 8
  %3 = load i64, ptr %_b5, align 8
  %cmp1 = icmp ult i64 %2, %3
  br i1 %cmp1, label %cond.true2, label %cond.false3

cond.true2:                                       ; preds = %cond.false
  %4 = load i64, ptr %_a4, align 8
  br label %cond.end

cond.false3:                                      ; preds = %cond.false
  %5 = load i64, ptr %_b5, align 8
  br label %cond.end

cond.end:                                         ; preds = %cond.false3, %cond.true2
  %cond = phi i64 [ %4, %cond.true2 ], [ %5, %cond.false3 ]
  store i64 %cond, ptr %tmp, align 8
  %6 = load i64, ptr %tmp, align 8
  %call = call noalias ptr @g_malloc(i64 noundef %6) #4
  br label %cond.end4

cond.end4:                                        ; preds = %cond.end, %cond.true
  %cond5 = phi ptr [ %arraydecay, %cond.true ], [ %call, %cond.end ]
  store ptr %cond5, ptr %buffer, align 8
  br label %while.cond

while.cond:                                       ; preds = %if.end, %cond.end4
  %7 = load i64, ptr %size.addr, align 8
  %cmp6 = icmp ugt i64 %7, 0
  br i1 %cmp6, label %while.body, label %while.end

while.body:                                       ; preds = %while.cond
  store i64 65536, ptr %_a6, align 8
  %8 = load i64, ptr %size.addr, align 8
  store i64 %8, ptr %_b7, align 8
  %9 = load i64, ptr %_a6, align 8
  %10 = load i64, ptr %_b7, align 8
  %cmp8 = icmp ult i64 %9, %10
  br i1 %cmp8, label %cond.true9, label %cond.false10

cond.true9:                                       ; preds = %while.body
  %11 = load i64, ptr %_a6, align 8
  br label %cond.end11

cond.false10:                                     ; preds = %while.body
  %12 = load i64, ptr %_b7, align 8
  br label %cond.end11

cond.end11:                                       ; preds = %cond.false10, %cond.true9
  %cond12 = phi i64 [ %11, %cond.true9 ], [ %12, %cond.false10 ]
  store i64 %cond12, ptr %tmp7, align 8
  %13 = load i64, ptr %tmp7, align 8
  store i64 %13, ptr %count, align 8
  %14 = load ptr, ptr %ioc.addr, align 8
  %15 = load ptr, ptr %buffer, align 8
  store i64 65536, ptr %_a8, align 8
  %16 = load i64, ptr %size.addr, align 8
  store i64 %16, ptr %_b9, align 8
  %17 = load i64, ptr %_a8, align 8
  %18 = load i64, ptr %_b9, align 8
  %cmp14 = icmp ult i64 %17, %18
  br i1 %cmp14, label %cond.true15, label %cond.false16

cond.true15:                                      ; preds = %cond.end11
  %19 = load i64, ptr %_a8, align 8
  br label %cond.end17

cond.false16:                                     ; preds = %cond.end11
  %20 = load i64, ptr %_b9, align 8
  br label %cond.end17

cond.end17:                                       ; preds = %cond.false16, %cond.true15
  %cond18 = phi i64 [ %19, %cond.true15 ], [ %20, %cond.false16 ]
  store i64 %cond18, ptr %tmp13, align 8
  %21 = load i64, ptr %tmp13, align 8
  %22 = load ptr, ptr %errp.addr, align 8
  %call19 = call i32 @nbd_read(ptr noundef %14, ptr noundef %15, i64 noundef %21, ptr noundef null, ptr noundef %22)
  %conv = sext i32 %call19 to i64
  store i64 %conv, ptr %ret, align 8
  %23 = load i64, ptr %ret, align 8
  %cmp20 = icmp slt i64 %23, 0
  br i1 %cmp20, label %if.then, label %if.end

if.then:                                          ; preds = %cond.end17
  br label %cleanup

if.end:                                           ; preds = %cond.end17
  %24 = load i64, ptr %count, align 8
  %25 = load i64, ptr %size.addr, align 8
  %sub = sub i64 %25, %24
  store i64 %sub, ptr %size.addr, align 8
  br label %while.cond, !llvm.loop !5

while.end:                                        ; preds = %while.cond
  br label %cleanup

cleanup:                                          ; preds = %while.end, %if.then
  %26 = load ptr, ptr %buffer, align 8
  %arraydecay22 = getelementptr inbounds [1024 x i8], ptr %small, i64 0, i64 0
  %cmp23 = icmp ne ptr %26, %arraydecay22
  br i1 %cmp23, label %if.then25, label %if.end26

if.then25:                                        ; preds = %cleanup
  %27 = load ptr, ptr %buffer, align 8
  call void @g_free(ptr noundef %27)
  br label %if.end26

if.end26:                                         ; preds = %if.then25, %cleanup
  %28 = load i64, ptr %ret, align 8
  %conv27 = trunc i64 %28 to i32
  ret i32 %conv27
}