; Function Attrs: nounwind sspstrong uwtable
define dso_local range(i32 -5, 1) i32 @nbd_drop(ptr noundef %ioc, i64 noundef %size, ptr noundef %errp) local_unnamed_addr #0 {
entry:
  %_auto_errp_prop.i = alloca %struct.ErrorPropagator, align 8
  %small = alloca [1024 x i8], align 16
  %cmp = icmp ult i64 %size, 1025
  br i1 %cmp, label %cond.end4, label %cond.end4.thread

cond.end4.thread:                                 ; preds = %entry
  %cond = tail call i64 @llvm.umin.i64(i64 %size, i64 65536)
  %call = tail call noalias ptr @g_malloc(i64 noundef %cond) #7
  br label %while.body.lr.ph

cond.end4:                                        ; preds = %entry
  %cmp6.not15 = icmp eq i64 %size, 0
  br i1 %cmp6.not15, label %if.end26, label %while.body.lr.ph

while.body.lr.ph:                                 ; preds = %cond.end4.thread, %cond.end4
  %cond520 = phi ptr [ %call, %cond.end4.thread ], [ %small, %cond.end4 ]
  %errp1.i = getelementptr inbounds nuw i8, ptr %_auto_errp_prop.i, i64 8
  %tobool.i = icmp eq ptr %errp, null
  %cmp.i = icmp eq ptr %errp, @error_fatal
  %or.cond.i = or i1 %tobool.i, %cmp.i
  %spec.select.i = select i1 %or.cond.i, ptr %_auto_errp_prop.i, ptr %errp
  br label %while.body

while.cond:                                       ; preds = %while.body
  %sub = sub i64 %size.addr.016, %cond12
  %cmp6.not = icmp eq i64 %sub, 0
  br i1 %cmp6.not, label %cleanup, label %while.body, !llvm.loop !5

while.body:                                       ; preds = %while.body.lr.ph, %while.cond
  %size.addr.016 = phi i64 [ %size, %while.body.lr.ph ], [ %sub, %while.cond ]
  %cond12 = call i64 @llvm.umin.i64(i64 %size.addr.016, i64 65536)
  call void @llvm.lifetime.start.p0(i64 16, ptr nonnull %_auto_errp_prop.i)
  store ptr null, ptr %_auto_errp_prop.i, align 8
  store ptr %errp, ptr %errp1.i, align 8
  %call.i = call i32 @qio_channel_read_all(ptr noundef %ioc, ptr noundef %cond520, i64 noundef range(i64 1, 0) %cond12, ptr noundef %spec.select.i) #8
  %cmp3.i = icmp slt i32 %call.i, 0
  %_auto_errp_prop.val.i = load ptr, ptr %_auto_errp_prop.i, align 8
  %_auto_errp_prop.val7.i = load ptr, ptr %errp1.i, align 8
  call void @error_propagate(ptr noundef %_auto_errp_prop.val7.i, ptr noundef %_auto_errp_prop.val.i) #8
  call void @llvm.lifetime.end.p0(i64 16, ptr nonnull %_auto_errp_prop.i)
  br i1 %cmp3.i, label %cleanup, label %while.cond

cleanup:                                          ; preds = %while.body, %while.cond
  %ret.1 = phi i32 [ -5, %while.body ], [ 0, %while.cond ]
  %cmp23.not = icmp eq ptr %cond520, %small
  br i1 %cmp23.not, label %if.end26, label %if.then25

if.then25:                                        ; preds = %cleanup
  call void @g_free(ptr noundef %cond520) #8
  br label %if.end26

if.end26:                                         ; preds = %cond.end4, %if.then25, %cleanup
  %ret.125 = phi i32 [ %ret.1, %if.then25 ], [ %ret.1, %cleanup ], [ 0, %cond.end4 ]
  ret i32 %ret.125
}